; Function Attrs: mustprogress nofree norecurse nosync nounwind memory(readwrite, inaccessiblemem: none) uwtable
define internal void @_ZN12_GLOBAL__N_120act_case_split_queue21activity_increased_ehEj(ptr nocapture noundef nonnull readonly align 8 dereferenceable(48) %this, i32 noundef %v) unnamed_addr #4 align 2 {
entry:
  %m_queue = getelementptr inbounds i8, ptr %this, i64 24
  %0 = getelementptr inbounds i8, ptr %this, i64 40
  %m_queue.val = load ptr, ptr %0, align 8
  %cmp.i.i = icmp eq ptr %m_queue.val, null
  br i1 %cmp.i.i, label %_ZNK6vectorIiLb0EjE4sizeEv.exit.i, label %if.end.i.i

if.end.i.i:                                       ; preds = %entry
  %arrayidx.i.i = getelementptr inbounds i8, ptr %m_queue.val, i64 -4
  %1 = load i32, ptr %arrayidx.i.i, align 4
  br label %_ZNK6vectorIiLb0EjE4sizeEv.exit.i

_ZNK6vectorIiLb0EjE4sizeEv.exit.i:                ; preds = %if.end.i.i, %entry
  %retval.0.i.i = phi i32 [ %1, %if.end.i.i ], [ 0, %entry ]
  %cmp.i = icmp sgt i32 %retval.0.i.i, %v
  br i1 %cmp.i, label %_ZNK4heapIN12_GLOBAL__N_115bool_var_act_ltEE8containsEi.exit, label %if.end

_ZNK4heapIN12_GLOBAL__N_115bool_var_act_ltEE8containsEi.exit: ; preds = %_ZNK6vectorIiLb0EjE4sizeEv.exit.i
  %idxprom.i.i = zext i32 %v to i64
  %arrayidx.i2.i = getelementptr inbounds i32, ptr %m_queue.val, i64 %idxprom.i.i
  %2 = load i32, ptr %arrayidx.i2.i, align 4
  %cmp4.i.not = icmp eq i32 %2, 0
  br i1 %cmp4.i.not, label %if.end, label %if.then

if.then:                                          ; preds = %_ZNK4heapIN12_GLOBAL__N_115bool_var_act_ltEE8containsEi.exit
  %m_values.i.i = getelementptr inbounds i8, ptr %this, i64 32
  %3 = load ptr, ptr %m_values.i.i, align 8
  %idxprom.i.i.i = zext i32 %2 to i64
  %arrayidx.i.i.i = getelementptr inbounds i32, ptr %3, i64 %idxprom.i.i.i
  %4 = load i32, ptr %arrayidx.i.i.i, align 4
  %cmp27.i.i = icmp eq i32 %2, 1
  %.pre34.i.i = zext i32 %4 to i64
  br i1 %cmp27.i.i, label %_ZN4heapIN12_GLOBAL__N_115bool_var_act_ltEE9decreasedEi.exit, label %lor.lhs.false.i.i

lor.lhs.false.i.i:                                ; preds = %if.then, %if.end.i.i4
  %idx.addr.028.i.i = phi i32 [ %shr.i29.i.i, %if.end.i.i4 ], [ %2, %if.then ]
  %shr.i29.i.i = ashr i32 %idx.addr.028.i.i, 1
  %5 = load ptr, ptr %m_values.i.i, align 8
  %idxprom.i12.i.i = zext i32 %shr.i29.i.i to i64
  %arrayidx.i13.i.i = getelementptr inbounds i32, ptr %5, i64 %idxprom.i12.i.i
  %6 = load i32, ptr %arrayidx.i13.i.i, align 4
  %this.val.i.i = load ptr, ptr %m_queue, align 8
  %this.val.val.i.i = load ptr, ptr %this.val.i.i, align 8
  %arrayidx.i.i.i.i.i = getelementptr inbounds double, ptr %this.val.val.i.i, i64 %.pre34.i.i
  %7 = load double, ptr %arrayidx.i.i.i.i.i, align 8
  %idxprom.i1.i.i.i.i = zext i32 %6 to i64
  %arrayidx.i2.i.i.i.i = getelementptr inbounds double, ptr %this.val.val.i.i, i64 %idxprom.i1.i.i.i.i
  %8 = load double, ptr %arrayidx.i2.i.i.i.i, align 8
  %cmp.i.i.i.i = fcmp ogt double %7, %8
  %idxprom.i16.i.i = zext i32 %idx.addr.028.i.i to i64
  br i1 %cmp.i.i.i.i, label %if.end.i.i4, label %_ZN4heapIN12_GLOBAL__N_115bool_var_act_ltEE9decreasedEi.exit

if.end.i.i4:                                      ; preds = %lor.lhs.false.i.i
  %arrayidx.i17.i.i = getelementptr inbounds i32, ptr %5, i64 %idxprom.i16.i.i
  store i32 %6, ptr %arrayidx.i17.i.i, align 4
  %9 = load ptr, ptr %m_values.i.i, align 8
  %arrayidx.i19.i.i = getelementptr inbounds i32, ptr %9, i64 %idxprom.i16.i.i
  %10 = load i32, ptr %arrayidx.i19.i.i, align 4
  %11 = load ptr, ptr %0, align 8
  %idxprom.i20.i.i = zext i32 %10 to i64
  %arrayidx.i21.i.i = getelementptr inbounds i32, ptr %11, i64 %idxprom.i20.i.i
  store i32 %idx.addr.028.i.i, ptr %arrayidx.i21.i.i, align 4
  %cmp.i.i5 = icmp ult i32 %shr.i29.i.i, 2
  br i1 %cmp.i.i5, label %if.end.while.end.loopexit_crit_edge.i.i, label %lor.lhs.false.i.i, !llvm.loop !7

if.end.while.end.loopexit_crit_edge.i.i:          ; preds = %if.end.i.i4
  %.pre.pre.i.i = load ptr, ptr %m_values.i.i, align 8
  br label %_ZN4heapIN12_GLOBAL__N_115bool_var_act_ltEE9decreasedEi.exit

_ZN4heapIN12_GLOBAL__N_115bool_var_act_ltEE9decreasedEi.exit: ; preds = %lor.lhs.false.i.i, %if.then, %if.end.while.end.loopexit_crit_edge.i.i
  %idxprom.i22.pre-phi.i.i = phi i64 [ %idxprom.i12.i.i, %if.end.while.end.loopexit_crit_edge.i.i ], [ 1, %if.then ], [ %idxprom.i16.i.i, %lor.lhs.false.i.i ]
  %12 = phi ptr [ %.pre.pre.i.i, %if.end.while.end.loopexit_crit_edge.i.i ], [ %3, %if.then ], [ %5, %lor.lhs.false.i.i ]
  %idx.addr.0.lcssa.i.i = phi i32 [ %shr.i29.i.i, %if.end.while.end.loopexit_crit_edge.i.i ], [ 1, %if.then ], [ %idx.addr.028.i.i, %lor.lhs.false.i.i ]
  %arrayidx.i23.i.i = getelementptr inbounds i32, ptr %12, i64 %idxprom.i22.pre-phi.i.i
  store i32 %4, ptr %arrayidx.i23.i.i, align 4
  %13 = load ptr, ptr %0, align 8
  %arrayidx.i25.i.i = getelementptr inbounds i32, ptr %13, i64 %.pre34.i.i
  store i32 %idx.addr.0.lcssa.i.i, ptr %arrayidx.i25.i.i, align 4
  br label %if.end

if.end:                                           ; preds = %_ZNK6vectorIiLb0EjE4sizeEv.exit.i, %_ZN4heapIN12_GLOBAL__N_115bool_var_act_ltEE9decreasedEi.exit, %_ZNK4heapIN12_GLOBAL__N_115bool_var_act_ltEE8containsEi.exit
  ret void
}